; Function Attrs: mustprogress uwtable
define void @_ZN7jsonnet8internal12CompilerPass5visitEPNS0_5LocalE(ptr noundef nonnull align 8 dereferenceable(16) %0, ptr noundef %1) unnamed_addr #4 align 2 {
  %3 = getelementptr inbounds nuw i8, ptr %1, i64 128
  %4 = load ptr, ptr %3, align 8, !tbaa !84
  %5 = getelementptr inbounds nuw i8, ptr %1, i64 136
  %6 = load ptr, ptr %5, align 8, !tbaa !84
  %.not16 = icmp eq ptr %4, %6
  br i1 %.not16, label %._crit_edge, label %.lr.ph

._crit_edge:                                      ; preds = %24, %2
  %7 = getelementptr inbounds nuw i8, ptr %1, i64 152
  %8 = load ptr, ptr %0, align 8, !tbaa !17
  %9 = getelementptr inbounds nuw i8, ptr %8, i64 48
  %10 = load ptr, ptr %9, align 8
  tail call void %10(ptr noundef nonnull align 8 dereferenceable(16) %0, ptr noundef nonnull align 8 dereferenceable(8) %7)
  ret void

.lr.ph:                                           ; preds = %2, %24
  %.sroa.013.017 = phi ptr [ %37, %24 ], [ %4, %2 ]
  %11 = load ptr, ptr %0, align 8, !tbaa !17
  %12 = getelementptr inbounds nuw i8, ptr %11, i64 8
  %13 = load ptr, ptr %12, align 8
  tail call void %13(ptr noundef nonnull align 8 dereferenceable(16) %0, ptr noundef nonnull align 8 dereferenceable(24) %.sroa.013.017)
  %14 = getelementptr inbounds nuw i8, ptr %.sroa.013.017, i64 64
  %15 = load i8, ptr %14, align 8, !tbaa !86, !range !48, !noundef !49
  %16 = trunc nuw i8 %15 to i1
  br i1 %16, label %17, label %24

17:                                               ; preds = %.lr.ph
  %18 = getelementptr inbounds nuw i8, ptr %.sroa.013.017, i64 72
  %19 = getelementptr inbounds nuw i8, ptr %.sroa.013.017, i64 96
  %20 = getelementptr inbounds nuw i8, ptr %.sroa.013.017, i64 128
  %21 = load ptr, ptr %0, align 8, !tbaa !17
  %22 = getelementptr inbounds nuw i8, ptr %21, i64 24
  %23 = load ptr, ptr %22, align 8
  tail call void %23(ptr noundef nonnull align 8 dereferenceable(16) %0, ptr noundef nonnull align 8 dereferenceable(24) %18, ptr noundef nonnull align 8 dereferenceable(24) %19, ptr noundef nonnull align 8 dereferenceable(24) %20)
  br label %24

24:                                               ; preds = %17, %.lr.ph
  %25 = getelementptr inbounds nuw i8, ptr %.sroa.013.017, i64 32
  %26 = load ptr, ptr %0, align 8, !tbaa !17
  %27 = getelementptr inbounds nuw i8, ptr %26, i64 8
  %28 = load ptr, ptr %27, align 8
  tail call void %28(ptr noundef nonnull align 8 dereferenceable(16) %0, ptr noundef nonnull align 8 dereferenceable(24) %25)
  %29 = getelementptr inbounds nuw i8, ptr %.sroa.013.017, i64 56
  %30 = load ptr, ptr %0, align 8, !tbaa !17
  %31 = getelementptr inbounds nuw i8, ptr %30, i64 48
  %32 = load ptr, ptr %31, align 8
  tail call void %32(ptr noundef nonnull align 8 dereferenceable(16) %0, ptr noundef nonnull align 8 dereferenceable(8) %29)
  %33 = getelementptr inbounds nuw i8, ptr %.sroa.013.017, i64 152
  %34 = load ptr, ptr %0, align 8, !tbaa !17
  %35 = getelementptr inbounds nuw i8, ptr %34, i64 8
  %36 = load ptr, ptr %35, align 8
  tail call void %36(ptr noundef nonnull align 8 dereferenceable(16) %0, ptr noundef nonnull align 8 dereferenceable(24) %33)
  %37 = getelementptr inbounds nuw i8, ptr %.sroa.013.017, i64 176
  %.not = icmp eq ptr %37, %6
  br i1 %.not, label %._crit_edge, label %.lr.ph
}